target datalayout = "e-m:e-p270:32:32-p271:32:32-p272:64:64-i64:64-i128:128-f80:128-n8:16:32:64-S128"
target triple = "x86_64-pc-linux-gnu"

%struct.Bus_Man_t_ = type { ptr, ptr, ptr, ptr, ptr, ptr, ptr, ptr, ptr, ptr, ptr, ptr }
%struct.Vec_Ptr_t_ = type { i32, i32, ptr }
%struct.Abc_Ntk_t_ = type { i32, i32, ptr, ptr, ptr, ptr, ptr, ptr, ptr, ptr, ptr, ptr, ptr, [11 x i32], i32, i32, i32, i32, ptr, i32, ptr, ptr, i32, i32, i32, double, i32, %struct.Vec_Int_t_, ptr, ptr, ptr, ptr, ptr, float, i32, ptr, ptr, ptr, ptr, ptr, ptr, ptr, ptr, ptr, ptr, ptr, ptr, ptr, ptr, ptr, ptr, ptr, ptr, ptr, ptr, ptr, ptr }
%struct.Vec_Int_t_ = type { i32, i32, ptr }
%struct.Vec_Flt_t_ = type { i32, i32, ptr }
%struct.SC_Lib_ = type { ptr, ptr, ptr, ptr, float, i32, float, i32, %struct.Vec_Ptr_t_, %struct.Vec_Ptr_t_, %struct.Vec_Ptr_t_, %struct.Vec_Ptr_t_, %struct.Vec_Ptr_t_, ptr, i32 }
%struct.Abc_Obj_t_ = type { ptr, ptr, i32, i32, %struct.Vec_Int_t_, %struct.Vec_Int_t_, %union.anon, %union.anon.0 }
%union.anon = type { ptr }
%union.anon.0 = type { ptr }

@.str = private unnamed_addr constant [62 x i8] c"Cannot find the default PI driving cell (%s) in the library.\0A\00", align 1

; Function Attrs: inlinehint nounwind uwtable
define internal void @Vec_FltWriteEntry(ptr noundef %0, i32 noundef %1, float noundef %2) #4 {
  %4 = alloca ptr, align 8
  %5 = alloca i32, align 4
  %6 = alloca float, align 4
  store ptr %0, ptr %4, align 8, !tbaa !70
  store i32 %1, ptr %5, align 4, !tbaa !58
  store float %2, ptr %6, align 4, !tbaa !74
  %7 = load float, ptr %6, align 4, !tbaa !74
  %8 = load ptr, ptr %4, align 8, !tbaa !70
  %9 = getelementptr inbounds nuw %struct.Vec_Flt_t_, ptr %8, i32 0, i32 2
  %10 = load ptr, ptr %9, align 8, !tbaa !73
  %11 = load i32, ptr %5, align 4, !tbaa !58
  %12 = sext i32 %11 to i64
  %13 = getelementptr inbounds float, ptr %10, i64 %12
  store float %7, ptr %13, align 4, !tbaa !74
  ret void
}

; Function Attrs: inlinehint nounwind uwtable
define internal i32 @Abc_ObjId(ptr noundef %0) #4 {
  %2 = alloca ptr, align 8
  store ptr %0, ptr %2, align 8, !tbaa !60
  %3 = load ptr, ptr %2, align 8, !tbaa !60
  %4 = getelementptr inbounds nuw %struct.Abc_Obj_t_, ptr %3, i32 0, i32 2
  %5 = load i32, ptr %4, align 8, !tbaa !101
  ret i32 %5
}

; Function Attrs: inlinehint nounwind uwtable
define internal ptr @Bus_SclObjMan(ptr noundef %0) #4 {
  %2 = alloca ptr, align 8
  store ptr %0, ptr %2, align 8, !tbaa !60
  %3 = load ptr, ptr %2, align 8, !tbaa !60
  %4 = getelementptr inbounds nuw %struct.Abc_Obj_t_, ptr %3, i32 0, i32 0
  %5 = load ptr, ptr %4, align 8, !tbaa !86
  %6 = getelementptr inbounds nuw %struct.Abc_Ntk_t_, ptr %5, i32 0, i32 44
  %7 = load ptr, ptr %6, align 8, !tbaa !56
  ret ptr %7
}

; Function Attrs: inlinehint nounwind uwtable
define internal ptr @Vec_PtrEntry(ptr noundef %0, i32 noundef %1) #4 {
  %3 = alloca ptr, align 8
  %4 = alloca i32, align 4
  store ptr %0, ptr %3, align 8, !tbaa !66
  store i32 %1, ptr %4, align 4, !tbaa !58
  %5 = load ptr, ptr %3, align 8, !tbaa !66
  %6 = getelementptr inbounds nuw %struct.Vec_Ptr_t_, ptr %5, i32 0, i32 2
  %7 = load ptr, ptr %6, align 8, !tbaa !69
  %8 = load i32, ptr %4, align 4, !tbaa !58
  %9 = sext i32 %8 to i64
  %10 = getelementptr inbounds ptr, ptr %7, i64 %9
  %11 = load ptr, ptr %10, align 8, !tbaa !88
  ret ptr %11
}

; Function Attrs: inlinehint nounwind uwtable
define internal i32 @Vec_PtrSize(ptr noundef %0) #4 {
  %2 = alloca ptr, align 8
  store ptr %0, ptr %2, align 8, !tbaa !66
  %3 = load ptr, ptr %2, align 8, !tbaa !66
  %4 = getelementptr inbounds nuw %struct.Vec_Ptr_t_, ptr %3, i32 0, i32 1
  %5 = load i32, ptr %4, align 4, !tbaa !67
  ret i32 %5
}

; Function Attrs: inlinehint nounwind uwtable
define internal ptr @SC_LibCell(ptr noundef %0, i32 noundef %1) #4 {
  %3 = alloca ptr, align 8
  %4 = alloca i32, align 4
  store ptr %0, ptr %3, align 8, !tbaa !8
  store i32 %1, ptr %4, align 4, !tbaa !58
  %5 = load ptr, ptr %3, align 8, !tbaa !8
  %6 = getelementptr inbounds nuw %struct.SC_Lib_, ptr %5, i32 0, i32 11
  %7 = load i32, ptr %4, align 4, !tbaa !58
  %8 = call ptr @Vec_PtrEntry(ptr noundef %6, i32 noundef %7)
  ret ptr %8
}

; Function Attrs: inlinehint nounwind uwtable
define internal void @Bus_SclObjSetCin(ptr noundef %0, float noundef %1) #4 {
  %3 = alloca ptr, align 8
  %4 = alloca float, align 4
  store ptr %0, ptr %3, align 8, !tbaa !60
  store float %1, ptr %4, align 4, !tbaa !74
  %5 = load ptr, ptr %3, align 8, !tbaa !60
  %6 = call ptr @Bus_SclObjMan(ptr noundef %5)
  %7 = getelementptr inbounds nuw %struct.Bus_Man_t_, ptr %6, i32 0, i32 7
  %8 = load ptr, ptr %7, align 8, !tbaa !52
  %9 = load ptr, ptr %3, align 8, !tbaa !60
  %10 = call i32 @Abc_ObjId(ptr noundef %9)
  %11 = load float, ptr %4, align 4, !tbaa !74
  call void @Vec_FltWriteEntry(ptr noundef %8, i32 noundef %10, float noundef %11)
  ret void
}

; Function Attrs: inlinehint nounwind uwtable
define internal ptr @Abc_NtkCo(ptr noundef %0, i32 noundef %1) #4 {
  %3 = alloca ptr, align 8
  %4 = alloca i32, align 4
  store ptr %0, ptr %3, align 8, !tbaa !3
  store i32 %1, ptr %4, align 4, !tbaa !58
  %5 = load ptr, ptr %3, align 8, !tbaa !3
  %6 = getelementptr inbounds nuw %struct.Abc_Ntk_t_, ptr %5, i32 0, i32 9
  %7 = load ptr, ptr %6, align 8, !tbaa !82
  %8 = load i32, ptr %4, align 4, !tbaa !58
  %9 = call ptr @Vec_PtrEntry(ptr noundef %7, i32 noundef %8)
  ret ptr %9
}

; Function Attrs: inlinehint nounwind uwtable
define internal i32 @Abc_NtkCoNum(ptr noundef %0) #4 {
  %2 = alloca ptr, align 8
  store ptr %0, ptr %2, align 8, !tbaa !3
  %3 = load ptr, ptr %2, align 8, !tbaa !3
  %4 = getelementptr inbounds nuw %struct.Abc_Ntk_t_, ptr %3, i32 0, i32 9
  %5 = load ptr, ptr %4, align 8, !tbaa !82
  %6 = call i32 @Vec_PtrSize(ptr noundef %5)
  ret i32 %6
}

; Function Attrs: nounwind uwtable
define void @Bus_ManReadInOutLoads(ptr noundef %0) #0 {
  %2 = alloca ptr, align 8
  %3 = alloca ptr, align 8
  %4 = alloca i32, align 4
  %5 = alloca float, align 4
  %6 = alloca i32, align 4
  store ptr %0, ptr %2, align 8, !tbaa !12
  %7 = call float (...) @Abc_FrameReadMaxLoad()
  %8 = fcmp une float %7, 0.000000e+00
  br i1 %8, label %9, label %33

9:                                                ; preds = %1
  call void @llvm.lifetime.start.p0(i64 8, ptr %3) #12
  call void @llvm.lifetime.start.p0(i64 4, ptr %4) #12
  call void @llvm.lifetime.start.p0(i64 4, ptr %5) #12
  %10 = call float (...) @Abc_FrameReadMaxLoad()
  store float %10, ptr %5, align 4, !tbaa !74
  store i32 0, ptr %4, align 4, !tbaa !58
  br label %11

11:                                               ; preds = %29, %9
  %12 = load i32, ptr %4, align 4, !tbaa !58
  %13 = load ptr, ptr %2, align 8, !tbaa !12
  %14 = getelementptr inbounds nuw %struct.Bus_Man_t_, ptr %13, i32 0, i32 1
  %15 = load ptr, ptr %14, align 8, !tbaa !20
  %16 = call i32 @Abc_NtkCoNum(ptr noundef %15)
  %17 = icmp slt i32 %12, %16
  br i1 %17, label %18, label %24

18:                                               ; preds = %11
  %19 = load ptr, ptr %2, align 8, !tbaa !12
  %20 = getelementptr inbounds nuw %struct.Bus_Man_t_, ptr %19, i32 0, i32 1
  %21 = load ptr, ptr %20, align 8, !tbaa !20
  %22 = load i32, ptr %4, align 4, !tbaa !58
  %23 = call ptr @Abc_NtkCo(ptr noundef %21, i32 noundef %22)
  store ptr %23, ptr %3, align 8, !tbaa !60
  br label %24

24:                                               ; preds = %18, %11
  %25 = phi i1 [ false, %11 ], [ true, %18 ]
  br i1 %25, label %26, label %32

26:                                               ; preds = %24
  %27 = load ptr, ptr %3, align 8, !tbaa !60
  %28 = load float, ptr %5, align 4, !tbaa !74
  call void @Bus_SclObjSetCin(ptr noundef %27, float noundef %28)
  br label %29

29:                                               ; preds = %26
  %30 = load i32, ptr %4, align 4, !tbaa !58
  %31 = add nsw i32 %30, 1
  store i32 %31, ptr %4, align 4, !tbaa !58
  br label %11, !llvm.loop !80

32:                                               ; preds = %24
  call void @llvm.lifetime.end.p0(i64 4, ptr %5) #12
  call void @llvm.lifetime.end.p0(i64 4, ptr %4) #12
  call void @llvm.lifetime.end.p0(i64 8, ptr %3) #12
  br label %33

33:                                               ; preds = %32, %1
  %34 = call ptr (...) @Abc_FrameReadDrivingCell()
  %35 = icmp ne ptr %34, null
  br i1 %35, label %36, label %56

36:                                               ; preds = %33
  call void @llvm.lifetime.start.p0(i64 4, ptr %6) #12
  %37 = load ptr, ptr %2, align 8, !tbaa !12
  %38 = getelementptr inbounds nuw %struct.Bus_Man_t_, ptr %37, i32 0, i32 3
  %39 = load ptr, ptr %38, align 8, !tbaa !21
  %40 = call ptr (...) @Abc_FrameReadDrivingCell()
  %41 = call i32 @Abc_SclCellFind(ptr noundef %39, ptr noundef %40)
  store i32 %41, ptr %6, align 4, !tbaa !58
  %42 = load i32, ptr %6, align 4, !tbaa !58
  %43 = icmp eq i32 %42, -1
  br i1 %43, label %44, label %47

44:                                               ; preds = %36
  %45 = call ptr (...) @Abc_FrameReadDrivingCell()
  %46 = call i32 (ptr, ...) @printf(ptr noundef @.str, ptr noundef %45)
  br label %55

47:                                               ; preds = %36
  %48 = load ptr, ptr %2, align 8, !tbaa !12
  %49 = getelementptr inbounds nuw %struct.Bus_Man_t_, ptr %48, i32 0, i32 3
  %50 = load ptr, ptr %49, align 8, !tbaa !21
  %51 = load i32, ptr %6, align 4, !tbaa !58
  %52 = call ptr @SC_LibCell(ptr noundef %50, i32 noundef %51)
  %53 = load ptr, ptr %2, align 8, !tbaa !12
  %54 = getelementptr inbounds nuw %struct.Bus_Man_t_, ptr %53, i32 0, i32 2
  store ptr %52, ptr %54, align 8, !tbaa !81
  br label %55

55:                                               ; preds = %47, %44
  call void @llvm.lifetime.end.p0(i64 4, ptr %6) #12
  br label %56

56:                                               ; preds = %55, %33
  ret void
}