; Function Attrs: nounwind uwtable
define void @Bus_ManReadInOutLoads(ptr noundef captures(none) %0) local_unnamed_addr #0 {
  %2 = tail call float (...) @Abc_FrameReadMaxLoad() #24
  %3 = fcmp une float %2, 0.000000e+00
  br i1 %3, label %4, label %.critedge

4:                                                ; preds = %1
  %5 = tail call float (...) @Abc_FrameReadMaxLoad() #24
  %6 = getelementptr inbounds nuw i8, ptr %0, i64 8
  %7 = load ptr, ptr %6, align 8, !tbaa !15
  %8 = getelementptr i8, ptr %7, i64 64
  %.val12 = load ptr, ptr %8, align 8, !tbaa !77
  %9 = getelementptr i8, ptr %.val12, i64 4
  %.val12.val = load i32, ptr %9, align 4, !tbaa !42
  %10 = icmp sgt i32 %.val12.val, 0
  br i1 %10, label %.lr.ph, label %.critedge

.lr.ph:                                           ; preds = %4
  %11 = getelementptr i8, ptr %.val12, i64 8
  %.val13.val = load ptr, ptr %11, align 8, !tbaa !43
  %wide.trip.count = zext nneg i32 %.val12.val to i64
  br label %12

12:                                               ; preds = %.lr.ph, %12
  %indvars.iv = phi i64 [ 0, %.lr.ph ], [ %indvars.iv.next, %12 ]
  %13 = getelementptr inbounds nuw ptr, ptr %.val13.val, i64 %indvars.iv
  %14 = load ptr, ptr %13, align 8, !tbaa !44
  %.val14 = load ptr, ptr %14, align 8, !tbaa !48
  %15 = getelementptr i8, ptr %14, i64 16
  %.val15 = load i32, ptr %15, align 8, !tbaa !51
  %16 = getelementptr i8, ptr %.val14, i64 360
  %.val14.val = load ptr, ptr %16, align 8, !tbaa !74
  %17 = getelementptr i8, ptr %.val14.val, i64 56
  %.val14.val.val = load ptr, ptr %17, align 8, !tbaa !69
  %18 = getelementptr i8, ptr %.val14.val.val, i64 8
  %.val14.val.val.val = load ptr, ptr %18, align 8, !tbaa !68
  %19 = sext i32 %.val15 to i64
  %20 = getelementptr inbounds float, ptr %.val14.val.val.val, i64 %19
  store float %5, ptr %20, align 4, !tbaa !73
  %indvars.iv.next = add nuw nsw i64 %indvars.iv, 1
  %exitcond.not = icmp eq i64 %indvars.iv.next, %wide.trip.count
  br i1 %exitcond.not, label %.critedge, label %12, !llvm.loop !78

.critedge:                                        ; preds = %12, %4, %1
  %21 = tail call ptr (...) @Abc_FrameReadDrivingCell() #24
  %.not = icmp eq ptr %21, null
  br i1 %.not, label %38, label %22

22:                                               ; preds = %.critedge
  %23 = getelementptr inbounds nuw i8, ptr %0, i64 24
  %24 = load ptr, ptr %23, align 8, !tbaa !16
  %25 = tail call ptr (...) @Abc_FrameReadDrivingCell() #24
  %26 = tail call i32 @Abc_SclCellFind(ptr noundef %24, ptr noundef %25) #24
  %27 = icmp eq i32 %26, -1
  br i1 %27, label %28, label %31

28:                                               ; preds = %22
  %29 = tail call ptr (...) @Abc_FrameReadDrivingCell() #24
  %30 = tail call i32 (ptr, ...) @printf(ptr noundef nonnull dereferenceable(1) @.str, ptr noundef %29)
  br label %38

31:                                               ; preds = %22
  %32 = load ptr, ptr %23, align 8, !tbaa !16
  %33 = getelementptr i8, ptr %32, i64 104
  %.val = load ptr, ptr %33, align 8, !tbaa !43
  %34 = sext i32 %26 to i64
  %35 = getelementptr inbounds ptr, ptr %.val, i64 %34
  %36 = load ptr, ptr %35, align 8, !tbaa !44
  %37 = getelementptr inbounds nuw i8, ptr %0, i64 16
  store ptr %36, ptr %37, align 8, !tbaa !79
  br label %38

38:                                               ; preds = %28, %31, %.critedge
  ret void
}